#include <math.h>
#include <stdio.h>
#include <stdlib.h>
#include <string.h>

int main()
{
	int a[1000],i,j,s,c,k,sum[1000],s0=0,qqq,n;
	scanf("%d",&n);
	for(i=1;i<=n;i++)
	{
	sum[i]=0;
	for(j=1;j<=n;j++)
		{scanf("%d",&a[j]);
		if(a[j]==0)
			s0++;
		sum[i]=sum[i]+a[j];
		}
		if(i==1)
		qqq=sum[1];
		else
		{
		if(sum[i-1]>sum[i])
		qqq=sum[i];
		}
	}
	k=n-qqq/255;
	c=(s0+4-2*k)/2;
	s=(c-2)*(k-2);
	printf("%d",s);
	return 0;
}